target datalayout = "e-m:e-p270:32:32-p271:32:32-p272:64:64-i64:64-i128:128-f80:128-n8:16:32:64-S128"
target triple = "x86_64-pc-linux-gnu"

%struct._zend_executor_globals = type { %struct._zval_struct, %struct._zval_struct, [32 x ptr], ptr, ptr, %struct._zend_array, %struct._zend_array, ptr, i32, i32, ptr, ptr, ptr, ptr, ptr, ptr, i64, ptr, ptr, i32, i32, i64, i32, i32, i32, i8, i8, %struct.zend_atomic_bool_s, %struct.zend_atomic_bool_s, ptr, i64, ptr, ptr, %struct._zend_array, %struct._zend_array, i32, i8, %struct._zval_struct, %struct._zval_struct, %struct._zend_stack, %struct._zend_stack, %struct._zend_stack, ptr, i32, i32, i64, ptr, ptr, ptr, %struct._zend_objects_store, ptr, ptr, ptr, [3 x %struct._zend_op], ptr, i8, i8, i64, i32, i32, ptr, [16 x %struct._HashTableIterator], ptr, %union._zend_function, %struct._zend_op, %struct._zend_array, i64, %struct.zend_get_gc_buffer, ptr, ptr, ptr, i64, i8, i32, ptr, ptr, i64, %struct._zend_call_stack, i64, i64, [6 x ptr] }
%struct.zend_atomic_bool_s = type { i8 }
%struct._zval_struct = type { %union._zend_value, %union.anon.3, %union.anon.6 }
%union._zend_value = type { i64 }
%union.anon.3 = type { i32 }
%union.anon.6 = type { i32 }
%struct._zend_stack = type { i32, i32, i32, ptr }
%struct._zend_objects_store = type { ptr, i32, i32, i32 }
%struct._HashTableIterator = type { ptr, i32, i32 }
%union._zend_function = type { %struct._zend_op_array }
%struct._zend_op_array = type { i8, [3 x i8], i32, ptr, ptr, ptr, i32, i32, ptr, ptr, ptr, ptr, i32, i32, i32, i32, ptr, ptr, ptr, ptr, ptr, i32, i32, ptr, ptr, ptr, i32, i32, i32, i32, ptr, ptr, [6 x ptr] }
%struct._zend_op = type { ptr, %union._znode_op, %union._znode_op, %union._znode_op, i32, i32, i8, i8, i8, i8 }
%union._znode_op = type { i32 }
%struct._zend_array = type { %struct._zend_refcounted_h, %union.anon.0, i32, %union.anon.1, i32, i32, i32, i32, i64, ptr }
%struct._zend_refcounted_h = type { i32, %union.anon }
%union.anon = type { i32 }
%union.anon.0 = type { i32 }
%union.anon.1 = type { ptr }
%struct.zend_get_gc_buffer = type { ptr, ptr, ptr }
%struct._zend_call_stack = type { ptr, i64 }
%struct._spl_SplObjectStorage = type { %struct._zend_array, i64, i32, i64, ptr, %struct._zend_object }
%struct._zend_object = type { %struct._zend_refcounted_h, i32, ptr, ptr, ptr, [1 x %struct._zval_struct] }
%struct._zend_execute_data = type { ptr, ptr, ptr, ptr, %struct._zval_struct, ptr, ptr, ptr, ptr }
%struct._spl_SplObjectStorageElement = type { ptr, %struct._zval_struct }
%struct._zend_refcounted = type { %struct._zend_refcounted_h }

@executor_globals = external global %struct._zend_executor_globals, align 8
@.str.4 = private unnamed_addr constant [2 x i8] c"z\00", align 1

; Function Attrs: nounwind uwtable
define internal ptr @spl_object_storage_from_obj(ptr noundef %0) #0 {
  %2 = alloca ptr, align 8
  store ptr %0, ptr %2, align 8
  %3 = load ptr, ptr %2, align 8
  %4 = getelementptr inbounds i8, ptr %3, i64 -88
  ret ptr %4
}

; Function Attrs: nounwind uwtable
define hidden void @zim_SplObjectStorage_setInfo(ptr noundef %0, ptr noundef %1) #0 {
  %3 = alloca ptr, align 8
  %4 = alloca ptr, align 8
  %5 = alloca ptr, align 8
  %6 = alloca ptr, align 8
  %7 = alloca ptr, align 8
  %8 = alloca ptr, align 8
  %9 = alloca ptr, align 8
  %10 = alloca ptr, align 8
  %11 = alloca ptr, align 8
  %12 = alloca ptr, align 8
  %13 = alloca ptr, align 8
  %14 = alloca ptr, align 8
  %15 = alloca ptr, align 8
  %16 = alloca i32, align 4
  store ptr %0, ptr %8, align 8
  store ptr %1, ptr %9, align 8
  %17 = load ptr, ptr %8, align 8
  %18 = getelementptr inbounds %struct._zend_execute_data, ptr %17, i32 0, i32 4
  %19 = getelementptr inbounds %struct._zval_struct, ptr %18, i32 0, i32 0
  %20 = load ptr, ptr %19, align 8
  %21 = call ptr @spl_object_storage_from_obj(ptr noundef %20)
  store ptr %21, ptr %11, align 8
  %22 = load ptr, ptr %8, align 8
  %23 = getelementptr inbounds %struct._zend_execute_data, ptr %22, i32 0, i32 4
  %24 = getelementptr inbounds %struct._zval_struct, ptr %23, i32 0, i32 2
  %25 = load i32, ptr %24, align 4
  %26 = call i32 (i32, ptr, ...) @zend_parse_parameters(i32 noundef %25, ptr noundef @.str.4, ptr noundef %12)
  %27 = icmp eq i32 %26, -1
  br i1 %27, label %28, label %33

28:                                               ; preds = %2
  br label %29

29:                                               ; preds = %28
  %30 = load ptr, ptr getelementptr inbounds (%struct._zend_executor_globals, ptr @executor_globals, i32 0, i32 50), align 8
  %31 = icmp ne ptr %30, null
  call void @llvm.assume(i1 %31)
  br label %91

32:                                               ; No predecessors!
  br label %33

33:                                               ; preds = %32, %2
  %34 = load ptr, ptr %11, align 8
  %35 = getelementptr inbounds %struct._spl_SplObjectStorage, ptr %34, i32 0, i32 0
  %36 = load ptr, ptr %11, align 8
  %37 = getelementptr inbounds %struct._spl_SplObjectStorage, ptr %36, i32 0, i32 2
  store ptr %35, ptr %5, align 8
  store ptr %37, ptr %6, align 8
  %38 = load ptr, ptr %5, align 8
  %39 = load ptr, ptr %6, align 8
  %40 = call ptr @zend_hash_get_current_data_ex(ptr noundef %38, ptr noundef %39) #10
  store ptr %40, ptr %7, align 8
  %41 = load ptr, ptr %7, align 8
  %42 = icmp ne ptr %41, null
  br i1 %42, label %43, label %49

43:                                               ; preds = %33
  %44 = load ptr, ptr %7, align 8
  %45 = load ptr, ptr %44, align 8
  %46 = icmp ne ptr %45, null
  call void @llvm.assume(i1 %46)
  %47 = load ptr, ptr %7, align 8
  %48 = load ptr, ptr %47, align 8
  store ptr %48, ptr %4, align 8
  br label %50

49:                                               ; preds = %33
  store ptr null, ptr %4, align 8
  br label %50

50:                                               ; preds = %49, %43
  %51 = load ptr, ptr %4, align 8
  store ptr %51, ptr %10, align 8
  %52 = icmp eq ptr %51, null
  br i1 %52, label %53, label %60

53:                                               ; preds = %50
  br label %54

54:                                               ; preds = %53
  br label %55

55:                                               ; preds = %54
  %56 = load ptr, ptr %9, align 8
  %57 = getelementptr inbounds %struct._zval_struct, ptr %56, i32 0, i32 1
  store i32 1, ptr %57, align 8
  br label %58

58:                                               ; preds = %55
  br label %91

59:                                               ; No predecessors!
  br label %60

60:                                               ; preds = %59, %50
  %61 = load ptr, ptr %10, align 8
  %62 = getelementptr inbounds %struct._spl_SplObjectStorageElement, ptr %61, i32 0, i32 1
  call void @zval_ptr_dtor(ptr noundef %62)
  br label %63

63:                                               ; preds = %60
  %64 = load ptr, ptr %10, align 8
  %65 = getelementptr inbounds %struct._spl_SplObjectStorageElement, ptr %64, i32 0, i32 1
  store ptr %65, ptr %13, align 8
  %66 = load ptr, ptr %12, align 8
  store ptr %66, ptr %14, align 8
  %67 = load ptr, ptr %14, align 8
  %68 = getelementptr inbounds %struct._zval_struct, ptr %67, i32 0, i32 0
  %69 = load ptr, ptr %68, align 8
  store ptr %69, ptr %15, align 8
  %70 = load ptr, ptr %14, align 8
  %71 = getelementptr inbounds %struct._zval_struct, ptr %70, i32 0, i32 1
  %72 = load i32, ptr %71, align 8
  store i32 %72, ptr %16, align 4
  br label %73

73:                                               ; preds = %63
  %74 = load ptr, ptr %15, align 8
  %75 = load ptr, ptr %13, align 8
  %76 = getelementptr inbounds %struct._zval_struct, ptr %75, i32 0, i32 0
  store ptr %74, ptr %76, align 8
  %77 = load i32, ptr %16, align 4
  %78 = load ptr, ptr %13, align 8
  %79 = getelementptr inbounds %struct._zval_struct, ptr %78, i32 0, i32 1
  store i32 %77, ptr %79, align 8
  br label %80

80:                                               ; preds = %73
  %81 = load i32, ptr %16, align 4
  %82 = and i32 %81, 65280
  %83 = icmp ne i32 %82, 0
  br i1 %83, label %84, label %90

84:                                               ; preds = %80
  %85 = load ptr, ptr %15, align 8
  %86 = getelementptr inbounds %struct._zend_refcounted, ptr %85, i32 0, i32 0
  store ptr %86, ptr %3, align 8
  %87 = load ptr, ptr %3, align 8
  %88 = load i32, ptr %87, align 4
  %89 = add i32 %88, 1
  store i32 %89, ptr %87, align 4
  br label %90

90:                                               ; preds = %84, %80
  br label %91

91:                                               ; preds = %90, %58, %29
  ret void
}