; Function Attrs: nounwind uwtable
define hidden void @zim_SplObjectStorage_setInfo(ptr nocapture noundef readonly %0, ptr nocapture noundef writeonly %1) #0 {
  %3 = alloca ptr, align 8
  %4 = getelementptr inbounds i8, ptr %0, i64 32
  %5 = load ptr, ptr %4, align 8
  %6 = getelementptr inbounds i8, ptr %0, i64 44
  %7 = load i32, ptr %6, align 4
  %8 = call i32 (i32, ptr, ...) @zend_parse_parameters(i32 noundef %7, ptr noundef nonnull @.str.4, ptr noundef nonnull %3) #10
  %9 = icmp eq i32 %8, -1
  br i1 %9, label %10, label %13

10:                                               ; preds = %2
  %11 = load ptr, ptr getelementptr inbounds (%struct._zend_executor_globals, ptr @executor_globals, i64 0, i32 50), align 8
  %12 = icmp ne ptr %11, null
  call void @llvm.assume(i1 %12)
  br label %31

13:                                               ; preds = %2
  %14 = getelementptr inbounds i8, ptr %5, i64 -88
  %15 = getelementptr inbounds i8, ptr %5, i64 -24
  %16 = call ptr @zend_hash_get_current_data_ex(ptr noundef nonnull %14, ptr noundef nonnull %15) #10
  %.not = icmp eq ptr %16, null
  br i1 %.not, label %17, label %19

17:                                               ; preds = %13
  %18 = getelementptr inbounds i8, ptr %1, i64 8
  store i32 1, ptr %18, align 8
  br label %31

19:                                               ; preds = %13
  %20 = load ptr, ptr %16, align 8, !nonnull !4, !noundef !4
  %21 = getelementptr inbounds i8, ptr %20, i64 8
  call void @zval_ptr_dtor(ptr noundef nonnull %21) #10
  %22 = load ptr, ptr %3, align 8
  %23 = load ptr, ptr %22, align 8
  %24 = getelementptr inbounds i8, ptr %22, i64 8
  %25 = load i32, ptr %24, align 8
  store ptr %23, ptr %21, align 8
  %26 = getelementptr inbounds i8, ptr %20, i64 16
  store i32 %25, ptr %26, align 8
  %27 = and i32 %25, 65280
  %.not22 = icmp eq i32 %27, 0
  br i1 %.not22, label %31, label %28

28:                                               ; preds = %19
  %29 = load i32, ptr %23, align 4
  %30 = add i32 %29, 1
  store i32 %30, ptr %23, align 4
  br label %31

31:                                               ; preds = %19, %28, %17, %10
  ret void
}